; Function Attrs: mustprogress nounwind uwtable
define dso_local void @_ZNK4node9inspector15ProtocolHandler7GetHostB5cxx11Ev(ptr noalias sret(%"class.std::__cxx11::basic_string") align 8 %agg.result, ptr nocapture noundef nonnull readonly align 8 dereferenceable(24) %this) local_unnamed_addr #0 align 2 {
entry:
  %ip = alloca [46 x i8], align 16
  %addr = alloca %struct.sockaddr_storage, align 8
  %len = alloca i32, align 4
  %ref.tmp = alloca %"class.std::allocator", align 1
  %ref.tmp12 = alloca %"class.std::allocator", align 1
  %ref.tmp15 = alloca %"class.std::allocator", align 1
  store i32 128, ptr %len, align 4
  %tcp_ = getelementptr inbounds i8, ptr %this, i64 16
  %0 = load ptr, ptr %tcp_, align 8
  %call3 = call i32 @uv_tcp_getsockname(ptr noundef %0, ptr noundef nonnull %addr, ptr noundef nonnull %len) #19
  %cmp.not = icmp eq i32 %call3, 0
  br i1 %cmp.not, label %if.end, label %if.then

if.then:                                          ; preds = %entry
  call void @_ZNSaIcEC1Ev(ptr noundef nonnull align 1 dereferenceable(1) %ref.tmp) #19
  %call.i = call noundef ptr @_ZNSt7__cxx1112basic_stringIcSt11char_traitsIcESaIcEE13_M_local_dataEv(ptr noundef nonnull align 8 dereferenceable(32) %agg.result) #19
  call void @_ZNSt7__cxx1112basic_stringIcSt11char_traitsIcESaIcEE12_Alloc_hiderC1EPcRKS3_(ptr noundef nonnull align 8 dereferenceable(8) %agg.result, ptr noundef %call.i, ptr noundef nonnull align 1 dereferenceable(1) %ref.tmp) #19
  call void @_ZNSt7__cxx1112basic_stringIcSt11char_traitsIcESaIcEE12_M_constructIPKcEEvT_S8_St20forward_iterator_tag(ptr noundef nonnull align 8 dereferenceable(32) %agg.result, ptr noundef nonnull @.str.3, ptr noundef nonnull @.str.3)
  br label %return

if.end:                                           ; preds = %entry
  %1 = load i16, ptr %addr, align 8
  %cmp4 = icmp eq i16 %1, 10
  br i1 %cmp4, label %if.then5, label %if.else

if.then5:                                         ; preds = %if.end
  %call6 = call i32 @uv_ip6_name(ptr noundef nonnull %addr, ptr noundef nonnull %ip, i64 noundef 46) #19
  br label %if.end9

if.else:                                          ; preds = %if.end
  %call8 = call i32 @uv_ip4_name(ptr noundef nonnull %addr, ptr noundef nonnull %ip, i64 noundef 46) #19
  br label %if.end9

if.end9:                                          ; preds = %if.else, %if.then5
  %err.0 = phi i32 [ %call6, %if.then5 ], [ %call8, %if.else ]
  %cmp10.not = icmp eq i32 %err.0, 0
  br i1 %cmp10.not, label %if.end13, label %if.then11

if.then11:                                        ; preds = %if.end9
  call void @_ZNSaIcEC1Ev(ptr noundef nonnull align 1 dereferenceable(1) %ref.tmp12) #19
  %call.i2 = call noundef ptr @_ZNSt7__cxx1112basic_stringIcSt11char_traitsIcESaIcEE13_M_local_dataEv(ptr noundef nonnull align 8 dereferenceable(32) %agg.result) #19
  call void @_ZNSt7__cxx1112basic_stringIcSt11char_traitsIcESaIcEE12_Alloc_hiderC1EPcRKS3_(ptr noundef nonnull align 8 dereferenceable(8) %agg.result, ptr noundef %call.i2, ptr noundef nonnull align 1 dereferenceable(1) %ref.tmp12) #19
  call void @_ZNSt7__cxx1112basic_stringIcSt11char_traitsIcESaIcEE12_M_constructIPKcEEvT_S8_St20forward_iterator_tag(ptr noundef nonnull align 8 dereferenceable(32) %agg.result, ptr noundef nonnull @.str.3, ptr noundef nonnull @.str.3)
  br label %return

if.end13:                                         ; preds = %if.end9
  call void @_ZNSaIcEC1Ev(ptr noundef nonnull align 1 dereferenceable(1) %ref.tmp15) #19
  %call.i5 = call noundef ptr @_ZNSt7__cxx1112basic_stringIcSt11char_traitsIcESaIcEE13_M_local_dataEv(ptr noundef nonnull align 8 dereferenceable(32) %agg.result) #19
  call void @_ZNSt7__cxx1112basic_stringIcSt11char_traitsIcESaIcEE12_Alloc_hiderC1EPcRKS3_(ptr noundef nonnull align 8 dereferenceable(8) %agg.result, ptr noundef %call.i5, ptr noundef nonnull align 1 dereferenceable(1) %ref.tmp15) #19
  %call.i.i6 = call noundef i64 @strlen(ptr noundef nonnull dereferenceable(1) %ip) #19
  %add.ptr.i7 = getelementptr inbounds i8, ptr %ip, i64 %call.i.i6
  call void @_ZNSt7__cxx1112basic_stringIcSt11char_traitsIcESaIcEE12_M_constructIPKcEEvT_S8_St20forward_iterator_tag(ptr noundef nonnull align 8 dereferenceable(32) %agg.result, ptr noundef nonnull %ip, ptr noundef nonnull %add.ptr.i7)
  br label %return

return:                                           ; preds = %if.end13, %if.then11, %if.then
  %ref.tmp15.sink = phi ptr [ %ref.tmp15, %if.end13 ], [ %ref.tmp12, %if.then11 ], [ %ref.tmp, %if.then ]
  call void @_ZNSaIcED1Ev(ptr noundef nonnull align 1 dereferenceable(1) %ref.tmp15.sink) #19
  ret void
}